target datalayout = "e-m:e-p270:32:32-p271:32:32-p272:64:64-i64:64-i128:128-f80:128-n8:16:32:64-S128"
target triple = "x86_64-unknown-linux-gnu"

%struct.winsize = type { i16, i16, i16, i16 }

@flac__utils_verbosity_ = dso_local global i32 2, align 4
@is_name_printed = internal global i32 0, align 4
@stats_char_count = internal global i32 0, align 4
@stderr = external global ptr, align 8
@.str.1 = private unnamed_addr constant [2 x i8] c"\08\00", align 1
@console_width = internal global i32 0, align 4
@console_chars_left = internal global i32 0, align 4
@.str.2 = private unnamed_addr constant [5 x i8] c"%s: \00", align 1

; Function Attrs: nounwind sspstrong uwtable
define dso_local i64 @strlen_console(ptr noundef %text) #0 {
entry:
  %retval = alloca i64, align 8
  %text.addr = alloca ptr, align 8
  %len = alloca i64, align 8
  %wtmp = alloca ptr, align 8
  store ptr %text, ptr %text.addr, align 8
  %0 = load ptr, ptr %text.addr, align 8
  %call = call i64 @strlen(ptr noundef %0) #8
  %add = add i64 %call, 1
  store i64 %add, ptr %len, align 8
  %1 = load i64, ptr %len, align 8
  %mul = mul i64 %1, 4
  %call1 = call noalias ptr @malloc(i64 noundef %mul) #9
  store ptr %call1, ptr %wtmp, align 8
  %2 = load ptr, ptr %wtmp, align 8
  %cmp = icmp eq ptr %2, null
  br i1 %cmp, label %if.then, label %if.end

if.then:                                          ; preds = %entry
  %3 = load i64, ptr %len, align 8
  %sub = sub i64 %3, 1
  store i64 %sub, ptr %retval, align 8
  br label %return

if.end:                                           ; preds = %entry
  %4 = load ptr, ptr %wtmp, align 8
  %5 = load ptr, ptr %text.addr, align 8
  %6 = load i64, ptr %len, align 8
  %call2 = call i64 @mbstowcs(ptr noundef %4, ptr noundef %5, i64 noundef %6) #7
  %7 = load ptr, ptr %wtmp, align 8
  %8 = load i64, ptr %len, align 8
  %call3 = call i32 @wcswidth(ptr noundef %7, i64 noundef %8) #7
  %conv = sext i32 %call3 to i64
  store i64 %conv, ptr %len, align 8
  %9 = load ptr, ptr %wtmp, align 8
  call void @free(ptr noundef %9) #7
  %10 = load i64, ptr %len, align 8
  store i64 %10, ptr %retval, align 8
  br label %return

return:                                           ; preds = %if.end, %if.then
  %11 = load i64, ptr %retval, align 8
  ret i64 %11
}

; Function Attrs: nounwind sspstrong uwtable
define dso_local i32 @get_console_width() #0 {
entry:
  %width = alloca i32, align 4
  %w = alloca %struct.winsize, align 2
  store i32 0, ptr %width, align 4
  %call = call i32 (i32, i64, ...) @ioctl(i32 noundef 1, i64 noundef 21523, ptr noundef %w) #7
  %cmp = icmp ne i32 %call, -1
  br i1 %cmp, label %if.then, label %if.end

if.then:                                          ; preds = %entry
  %ws_col = getelementptr inbounds %struct.winsize, ptr %w, i32 0, i32 1
  %0 = load i16, ptr %ws_col, align 2
  %conv = zext i16 %0 to i32
  store i32 %conv, ptr %width, align 4
  br label %if.end

if.end:                                           ; preds = %if.then, %entry
  %1 = load i32, ptr %width, align 4
  %cmp1 = icmp sle i32 %1, 0
  br i1 %cmp1, label %if.then3, label %if.end4

if.then3:                                         ; preds = %if.end
  store i32 80, ptr %width, align 4
  br label %if.end4

if.end4:                                          ; preds = %if.then3, %if.end
  %2 = load i32, ptr %width, align 4
  ret i32 %2
}

; Function Attrs: nounwind sspstrong uwtable
define dso_local void @stats_clear() #0 {
entry:
  br label %while.cond

while.cond:                                       ; preds = %while.body, %entry
  %0 = load i32, ptr @stats_char_count, align 4
  %cmp = icmp sgt i32 %0, 0
  br i1 %cmp, label %land.rhs, label %land.end

land.rhs:                                         ; preds = %while.cond
  %1 = load i32, ptr @stats_char_count, align 4
  %dec = add nsw i32 %1, -1
  store i32 %dec, ptr @stats_char_count, align 4
  %tobool = icmp ne i32 %1, 0
  br label %land.end

land.end:                                         ; preds = %land.rhs, %while.cond
  %2 = phi i1 [ false, %while.cond ], [ %tobool, %land.rhs ]
  br i1 %2, label %while.body, label %while.end

while.body:                                       ; preds = %land.end
  %3 = load ptr, ptr @stderr, align 8
  %call = call i32 (ptr, ptr, ...) @fprintf(ptr noundef %3, ptr noundef @.str.1)
  br label %while.cond, !llvm.loop !5

while.end:                                        ; preds = %land.end
  ret void
}

; Function Attrs: nounwind sspstrong uwtable
define dso_local void @stats_print_name(i32 noundef %level, ptr noundef %name) #0 {
entry:
  %level.addr = alloca i32, align 4
  %name.addr = alloca ptr, align 8
  %len = alloca i32, align 4
  store i32 %level, ptr %level.addr, align 4
  store ptr %name, ptr %name.addr, align 8
  %0 = load i32, ptr @flac__utils_verbosity_, align 4
  %1 = load i32, ptr %level.addr, align 4
  %cmp = icmp sge i32 %0, %1
  br i1 %cmp, label %if.then, label %if.end4

if.then:                                          ; preds = %entry
  call void @stats_clear()
  %2 = load i32, ptr @is_name_printed, align 4
  %tobool = icmp ne i32 %2, 0
  br i1 %tobool, label %if.then1, label %if.end

if.then1:                                         ; preds = %if.then
  br label %if.end4

if.end:                                           ; preds = %if.then
  %call = call i32 @get_console_width()
  store i32 %call, ptr @console_width, align 4
  %3 = load ptr, ptr %name.addr, align 8
  %call2 = call i64 @strlen_console(ptr noundef %3)
  %add = add i64 %call2, 2
  %conv = trunc i64 %add to i32
  store i32 %conv, ptr %len, align 4
  %4 = load i32, ptr @console_width, align 4
  %5 = load i32, ptr %len, align 4
  %6 = load i32, ptr @console_width, align 4
  %rem = srem i32 %5, %6
  %sub = sub nsw i32 %4, %rem
  store i32 %sub, ptr @console_chars_left, align 4
  %7 = load ptr, ptr @stderr, align 8
  %8 = load ptr, ptr %name.addr, align 8
  %call3 = call i32 (ptr, ptr, ...) @fprintf(ptr noundef %7, ptr noundef @.str.2, ptr noundef %8)
  store i32 1, ptr @is_name_printed, align 4
  br label %if.end4

if.end4:                                          ; preds = %if.end, %if.then1, %entry
  ret void
}