; Function Attrs: nounwind sspstrong uwtable
define dso_local void @stats_print_name(i32 noundef %level, ptr noundef %name) local_unnamed_addr #2 {
entry:
  %w.i = alloca %struct.winsize, align 2
  %0 = load i32, ptr @flac__utils_verbosity_, align 4
  %cmp.not = icmp slt i32 %0, %level
  br i1 %cmp.not, label %if.end4, label %if.then

if.then:                                          ; preds = %entry
  %1 = load i32, ptr @stats_char_count, align 4
  %cmp1.i = icmp sgt i32 %1, 0
  br i1 %cmp1.i, label %land.rhs.i, label %stats_clear.exit

land.rhs.i:                                       ; preds = %if.then, %land.rhs.i
  %2 = phi i32 [ %4, %land.rhs.i ], [ %1, %if.then ]
  %dec.i = add nsw i32 %2, -1
  store i32 %dec.i, ptr @stats_char_count, align 4
  %3 = load ptr, ptr @stderr, align 8
  %fputc.i = tail call i32 @fputc(i32 8, ptr %3)
  %4 = load i32, ptr @stats_char_count, align 4
  %cmp.i = icmp sgt i32 %4, 0
  br i1 %cmp.i, label %land.rhs.i, label %stats_clear.exit, !llvm.loop !5

stats_clear.exit:                                 ; preds = %land.rhs.i, %if.then
  %.b = load i1, ptr @is_name_printed, align 4
  br i1 %.b, label %if.end4, label %if.end

if.end:                                           ; preds = %stats_clear.exit
  call void @llvm.lifetime.start.p0(i64 8, ptr nonnull %w.i)
  %call.i = call i32 (i32, i64, ...) @ioctl(i32 noundef 1, i64 noundef 21523, ptr noundef nonnull %w.i) #18
  %cmp.not.i = icmp eq i32 %call.i, -1
  %ws_col.i = getelementptr inbounds nuw i8, ptr %w.i, i64 2
  %5 = load i16, ptr %ws_col.i, align 2
  %conv.i = zext i16 %5 to i32
  %width.0.i = select i1 %cmp.not.i, i32 0, i32 %conv.i
  %cmp1.i2 = icmp eq i32 %width.0.i, 0
  %spec.store.select.i = select i1 %cmp1.i2, i32 80, i32 %width.0.i
  call void @llvm.lifetime.end.p0(i64 8, ptr nonnull %w.i)
  store i32 %spec.store.select.i, ptr @console_width, align 4
  %call.i3 = call i64 @strlen(ptr noundef nonnull dereferenceable(1) %name) #19
  %add.i = add i64 %call.i3, 1
  %mul.i = shl i64 %add.i, 2
  %call1.i = call noalias ptr @malloc(i64 noundef %mul.i) #20
  %cmp.i4 = icmp eq ptr %call1.i, null
  br i1 %cmp.i4, label %strlen_console.exit, label %if.end.i

if.end.i:                                         ; preds = %if.end
  %call2.i = call i64 @mbstowcs(ptr noundef nonnull %call1.i, ptr noundef nonnull %name, i64 noundef %add.i) #18
  %call3.i = call i32 @wcswidth(ptr noundef nonnull %call1.i, i64 noundef %add.i) #18
  %conv.i56 = zext i32 %call3.i to i64
  call void @free(ptr noundef nonnull %call1.i) #18
  %.pre = load i32, ptr @console_width, align 4
  br label %strlen_console.exit

strlen_console.exit:                              ; preds = %if.end, %if.end.i
  %6 = phi i32 [ %.pre, %if.end.i ], [ %spec.store.select.i, %if.end ]
  %retval.0.i = phi i64 [ %conv.i56, %if.end.i ], [ %call.i3, %if.end ]
  %7 = trunc i64 %retval.0.i to i32
  %conv = add i32 %7, 2
  %rem = srem i32 %conv, %6
  %sub = sub nsw i32 %6, %rem
  store i32 %sub, ptr @console_chars_left, align 4
  %8 = load ptr, ptr @stderr, align 8
  %call3 = call i32 (ptr, ptr, ...) @fprintf(ptr noundef %8, ptr noundef nonnull @.str.2, ptr noundef nonnull %name) #21
  store i1 true, ptr @is_name_printed, align 4
  br label %if.end4

if.end4:                                          ; preds = %stats_clear.exit, %strlen_console.exit, %entry
  ret void
}